target datalayout = "e-m:e-p270:32:32-p271:32:32-p272:64:64-i64:64-i128:128-f80:128-n8:16:32:64-S128"
target triple = "x86_64-pc-linux-gnu"

%struct.EVP_SM4_KEY = type { %union.anon, ptr, %union.anon.0 }
%union.anon = type { double, [120 x i8] }
%union.anon.0 = type { ptr }

; Function Attrs: nounwind uwtable
define internal i32 @sm4_init_key(ptr noundef %0, ptr noundef %1, ptr noundef %2, i32 noundef %3) #0 {
  %5 = alloca ptr, align 8
  %6 = alloca ptr, align 8
  %7 = alloca ptr, align 8
  %8 = alloca i32, align 4
  %9 = alloca i32, align 4
  %10 = alloca ptr, align 8
  store ptr %0, ptr %5, align 8, !tbaa !3
  store ptr %1, ptr %6, align 8, !tbaa !8
  store ptr %2, ptr %7, align 8, !tbaa !8
  store i32 %3, ptr %8, align 4, !tbaa !10
  call void @llvm.lifetime.start.p0(i64 4, ptr %9) #3
  call void @llvm.lifetime.start.p0(i64 8, ptr %10) #3
  %11 = load ptr, ptr %5, align 8, !tbaa !3
  %12 = call ptr @EVP_CIPHER_CTX_get_cipher_data(ptr noundef %11)
  store ptr %12, ptr %10, align 8, !tbaa !12
  %13 = load ptr, ptr %5, align 8, !tbaa !3
  %14 = call ptr @EVP_CIPHER_CTX_get0_cipher(ptr noundef %13)
  %15 = call i32 @EVP_CIPHER_get_mode(ptr noundef %14)
  store i32 %15, ptr %9, align 4, !tbaa !10
  %16 = load i32, ptr %9, align 4, !tbaa !10
  %17 = icmp eq i32 %16, 1
  br i1 %17, label %21, label %18

18:                                               ; preds = %4
  %19 = load i32, ptr %9, align 4, !tbaa !10
  %20 = icmp eq i32 %19, 2
  br i1 %20, label %21, label %31

21:                                               ; preds = %18, %4
  %22 = load i32, ptr %8, align 4, !tbaa !10
  %23 = icmp ne i32 %22, 0
  br i1 %23, label %31, label %24

24:                                               ; preds = %21
  %25 = load ptr, ptr %10, align 8, !tbaa !12
  %26 = getelementptr inbounds nuw %struct.EVP_SM4_KEY, ptr %25, i32 0, i32 1
  store ptr @ossl_sm4_decrypt, ptr %26, align 8, !tbaa !13
  %27 = load ptr, ptr %6, align 8, !tbaa !8
  %28 = load ptr, ptr %5, align 8, !tbaa !3
  %29 = call ptr @EVP_CIPHER_CTX_get_cipher_data(ptr noundef %28)
  %30 = call i32 @ossl_sm4_set_key(ptr noundef %27, ptr noundef %29)
  br label %38

31:                                               ; preds = %21, %18
  %32 = load ptr, ptr %10, align 8, !tbaa !12
  %33 = getelementptr inbounds nuw %struct.EVP_SM4_KEY, ptr %32, i32 0, i32 1
  store ptr @ossl_sm4_encrypt, ptr %33, align 8, !tbaa !13
  %34 = load ptr, ptr %6, align 8, !tbaa !8
  %35 = load ptr, ptr %5, align 8, !tbaa !3
  %36 = call ptr @EVP_CIPHER_CTX_get_cipher_data(ptr noundef %35)
  %37 = call i32 @ossl_sm4_set_key(ptr noundef %34, ptr noundef %36)
  br label %38

38:                                               ; preds = %31, %24
  call void @llvm.lifetime.end.p0(i64 8, ptr %10) #3
  call void @llvm.lifetime.end.p0(i64 4, ptr %9) #3
  ret i32 1
}