; Function Attrs: nounwind uwtable
define internal noundef i32 @sm4_init_key(ptr noundef %0, ptr noundef %1, ptr readnone captures(none) %2, i32 noundef %3) #1 {
  %5 = tail call ptr @EVP_CIPHER_CTX_get_cipher_data(ptr noundef %0) #4
  %6 = tail call ptr @EVP_CIPHER_CTX_get0_cipher(ptr noundef %0) #4
  %7 = tail call i32 @EVP_CIPHER_get_mode(ptr noundef %6) #4
  %8 = add i32 %7, -3
  %or.cond = icmp ult i32 %8, -2
  %9 = icmp ne i32 %3, 0
  %or.cond3 = or i1 %9, %or.cond
  %10 = getelementptr inbounds nuw i8, ptr %5, i64 128
  %ossl_sm4_encrypt.ossl_sm4_decrypt = select i1 %or.cond3, ptr @ossl_sm4_encrypt, ptr @ossl_sm4_decrypt
  store ptr %ossl_sm4_encrypt.ossl_sm4_decrypt, ptr %10, align 8, !tbaa !3
  %11 = tail call ptr @EVP_CIPHER_CTX_get_cipher_data(ptr noundef %0) #4
  %12 = tail call i32 @ossl_sm4_set_key(ptr noundef %1, ptr noundef %11) #4
  ret i32 1
}